target datalayout = "e-m:e-p270:32:32-p271:32:32-p272:64:64-i64:64-i128:128-f80:128-n8:16:32:64-S128"
target triple = "x86_64-pc-linux-gnu"

%struct.BuildCtx = type { ptr, i32, ptr, ptr, ptr, ptr, i64, i32, i32, i32, i32, i32, ptr, ptr, ptr, ptr, ptr, ptr, ptr, ptr, ptr, [200 x %struct.BuildReloc] }
%struct.BuildReloc = type { i32, i32, i32 }

@ffid = internal global i32 0, align 4
@recffid = internal global i32 0, align 4
@stderr = external global ptr, align 8
@obuf = internal global [8192 x i8] zeroinitializer, align 16
@.str.40 = private unnamed_addr constant [31 x i8] c"Error: output buffer overflow\0A\00", align 1
@funcname = internal global [80 x i8] zeroinitializer, align 16
@.str.63 = private unnamed_addr constant [4 x i8] c",\0A0\00", align 1
@.str.64 = private unnamed_addr constant [16 x i8] c",\0A0x%02x00+(%s)\00", align 1
@.str.65 = private unnamed_addr constant [11 x i8] c",\0A0x%02x00\00", align 1

; Function Attrs: nounwind uwtable
define internal i32 @find_rec(ptr noundef %0) #0 {
  %2 = alloca i32, align 4
  %3 = alloca ptr, align 8
  %4 = alloca ptr, align 8
  %5 = alloca i32, align 4
  %6 = alloca i32, align 4
  store ptr %0, ptr %3, align 8, !tbaa !22
  call void @llvm.lifetime.start.p0(i64 8, ptr %4) #9
  store ptr @obuf, ptr %4, align 8, !tbaa !22
  call void @llvm.lifetime.start.p0(i64 4, ptr %5) #9
  store i32 2, ptr %5, align 4, !tbaa !20
  br label %7

7:                                                ; preds = %24, %1
  %8 = load ptr, ptr %4, align 8, !tbaa !22
  %9 = load i8, ptr %8, align 1, !tbaa !23
  %10 = icmp ne i8 %9, 0
  br i1 %10, label %11, label %27

11:                                               ; preds = %7
  %12 = load ptr, ptr %4, align 8, !tbaa !22
  %13 = load ptr, ptr %3, align 8, !tbaa !22
  %14 = call i32 @strcmp(ptr noundef %12, ptr noundef %13) #12
  %15 = icmp eq i32 %14, 0
  br i1 %15, label %16, label %18

16:                                               ; preds = %11
  %17 = load i32, ptr %5, align 4, !tbaa !20
  store i32 %17, ptr %2, align 4
  store i32 1, ptr %6, align 4
  br label %42

18:                                               ; preds = %11
  %19 = load ptr, ptr %4, align 8, !tbaa !22
  %20 = call i64 @strlen(ptr noundef %19) #12
  %21 = add i64 %20, 1
  %22 = load ptr, ptr %4, align 8, !tbaa !22
  %23 = getelementptr inbounds nuw i8, ptr %22, i64 %21
  store ptr %23, ptr %4, align 8, !tbaa !22
  br label %24

24:                                               ; preds = %18
  %25 = load i32, ptr %5, align 4, !tbaa !20
  %26 = add i32 %25, 1
  store i32 %26, ptr %5, align 4, !tbaa !20
  br label %7, !llvm.loop !59

27:                                               ; preds = %7
  %28 = load ptr, ptr %4, align 8, !tbaa !22
  %29 = load ptr, ptr %3, align 8, !tbaa !22
  %30 = call i64 @strlen(ptr noundef %29) #12
  %31 = getelementptr inbounds nuw i8, ptr %28, i64 %30
  %32 = getelementptr inbounds i8, ptr %31, i64 1
  %33 = icmp uge ptr %32, getelementptr inbounds nuw (i8, ptr @obuf, i64 8192)
  br i1 %33, label %34, label %37

34:                                               ; preds = %27
  %35 = load ptr, ptr @stderr, align 8, !tbaa !24
  %36 = call i32 (ptr, ptr, ...) @fprintf(ptr noundef %35, ptr noundef @.str.40) #9
  call void @exit(i32 noundef 1) #11
  unreachable

37:                                               ; preds = %27
  %38 = load ptr, ptr %4, align 8, !tbaa !22
  %39 = load ptr, ptr %3, align 8, !tbaa !22
  %40 = call ptr @strcpy(ptr noundef %38, ptr noundef %39) #9
  %41 = load i32, ptr %5, align 4, !tbaa !20
  store i32 %41, ptr %2, align 4
  store i32 1, ptr %6, align 4
  br label %42

42:                                               ; preds = %37, %16
  call void @llvm.lifetime.end.p0(i64 4, ptr %5) #9
  call void @llvm.lifetime.end.p0(i64 8, ptr %4) #9
  %43 = load i32, ptr %2, align 4
  ret i32 %43
}

; Function Attrs: nounwind uwtable
define internal void @libdef_rec(ptr noundef %0, ptr noundef %1, i32 noundef %2) #0 {
  %4 = alloca ptr, align 8
  %5 = alloca ptr, align 8
  %6 = alloca i32, align 4
  %7 = alloca ptr, align 8
  %8 = alloca i32, align 4
  store ptr %0, ptr %4, align 8, !tbaa !4
  store ptr %1, ptr %5, align 8, !tbaa !22
  store i32 %2, ptr %6, align 4, !tbaa !20
  %9 = load ptr, ptr %4, align 8, !tbaa !4
  %10 = getelementptr inbounds nuw %struct.BuildCtx, ptr %9, i32 0, i32 1
  %11 = load i32, ptr %10, align 8, !tbaa !9
  %12 = icmp eq i32 %11, 8
  br i1 %12, label %13, label %61

13:                                               ; preds = %3
  call void @llvm.lifetime.start.p0(i64 8, ptr %7) #9
  call void @llvm.lifetime.start.p0(i64 4, ptr %8) #9
  br label %14

14:                                               ; preds = %24, %13
  %15 = load i32, ptr @recffid, align 4, !tbaa !20
  %16 = add nsw i32 %15, 1
  %17 = load i32, ptr @ffid, align 4, !tbaa !20
  %18 = icmp slt i32 %16, %17
  br i1 %18, label %19, label %27

19:                                               ; preds = %14
  %20 = load ptr, ptr %4, align 8, !tbaa !4
  %21 = getelementptr inbounds nuw %struct.BuildCtx, ptr %20, i32 0, i32 2
  %22 = load ptr, ptr %21, align 8, !tbaa !19
  %23 = call i32 (ptr, ptr, ...) @fprintf(ptr noundef %22, ptr noundef @.str.63) #9
  br label %24

24:                                               ; preds = %19
  %25 = load i32, ptr @recffid, align 4, !tbaa !20
  %26 = add nsw i32 %25, 1
  store i32 %26, ptr @recffid, align 4, !tbaa !20
  br label %14, !llvm.loop !47

27:                                               ; preds = %14
  %28 = load i32, ptr @ffid, align 4, !tbaa !20
  store i32 %28, ptr @recffid, align 4, !tbaa !20
  %29 = load ptr, ptr %5, align 8, !tbaa !22
  %30 = load i8, ptr %29, align 1, !tbaa !23
  %31 = sext i8 %30 to i32
  %32 = icmp eq i32 %31, 46
  br i1 %32, label %33, label %34

33:                                               ; preds = %27
  store ptr @funcname, ptr %5, align 8, !tbaa !22
  br label %34

34:                                               ; preds = %33, %27
  %35 = load ptr, ptr %5, align 8, !tbaa !22
  %36 = call ptr @strchr(ptr noundef %35, i32 noundef 32) #12
  store ptr %36, ptr %7, align 8, !tbaa !22
  %37 = load ptr, ptr %7, align 8, !tbaa !22
  %38 = icmp ne ptr %37, null
  br i1 %38, label %39, label %42

39:                                               ; preds = %34
  %40 = load ptr, ptr %7, align 8, !tbaa !22
  %41 = getelementptr inbounds nuw i8, ptr %40, i32 1
  store ptr %41, ptr %7, align 8, !tbaa !22
  store i8 0, ptr %40, align 1, !tbaa !23
  br label %42

42:                                               ; preds = %39, %34
  %43 = load ptr, ptr %5, align 8, !tbaa !22
  %44 = call i32 @find_rec(ptr noundef %43)
  store i32 %44, ptr %8, align 4, !tbaa !20
  %45 = load ptr, ptr %7, align 8, !tbaa !22
  %46 = icmp ne ptr %45, null
  br i1 %46, label %47, label %54

47:                                               ; preds = %42
  %48 = load ptr, ptr %4, align 8, !tbaa !4
  %49 = getelementptr inbounds nuw %struct.BuildCtx, ptr %48, i32 0, i32 2
  %50 = load ptr, ptr %49, align 8, !tbaa !19
  %51 = load i32, ptr %8, align 4, !tbaa !20
  %52 = load ptr, ptr %7, align 8, !tbaa !22
  %53 = call i32 (ptr, ptr, ...) @fprintf(ptr noundef %50, ptr noundef @.str.64, i32 noundef %51, ptr noundef %52) #9
  br label %60

54:                                               ; preds = %42
  %55 = load ptr, ptr %4, align 8, !tbaa !4
  %56 = getelementptr inbounds nuw %struct.BuildCtx, ptr %55, i32 0, i32 2
  %57 = load ptr, ptr %56, align 8, !tbaa !19
  %58 = load i32, ptr %8, align 4, !tbaa !20
  %59 = call i32 (ptr, ptr, ...) @fprintf(ptr noundef %57, ptr noundef @.str.65, i32 noundef %58) #9
  br label %60

60:                                               ; preds = %54, %47
  call void @llvm.lifetime.end.p0(i64 4, ptr %8) #9
  call void @llvm.lifetime.end.p0(i64 8, ptr %7) #9
  br label %61

61:                                               ; preds = %60, %3
  ret void
}