; Function Attrs: nofree nounwind uwtable
define internal void @libdef_rec(ptr noundef readonly captures(none) %0, ptr noundef %1, i32 %2) #7 {
  %4 = getelementptr inbounds nuw i8, ptr %0, i64 8
  %5 = load i32, ptr %4, align 8, !tbaa !4
  %6 = icmp eq i32 %5, 8
  br i1 %6, label %.preheader, label %46

.preheader:                                       ; preds = %3
  %7 = load i32, ptr @recffid, align 4, !tbaa !18
  %8 = add nsw i32 %7, 1
  %9 = load i32, ptr @ffid, align 4, !tbaa !18
  %10 = icmp slt i32 %8, %9
  br i1 %10, label %.lr.ph, label %._crit_edge

.lr.ph:                                           ; preds = %.preheader
  %11 = getelementptr inbounds nuw i8, ptr %0, i64 16
  br label %12

12:                                               ; preds = %.lr.ph, %12
  %13 = load ptr, ptr %11, align 8, !tbaa !17
  %14 = tail call i64 @fwrite(ptr nonnull @.str.63, i64 3, i64 1, ptr %13)
  %15 = load i32, ptr @recffid, align 4, !tbaa !18
  %16 = add nsw i32 %15, 1
  store i32 %16, ptr @recffid, align 4, !tbaa !18
  %17 = add nsw i32 %15, 2
  %18 = load i32, ptr @ffid, align 4, !tbaa !18
  %19 = icmp slt i32 %17, %18
  br i1 %19, label %12, label %._crit_edge, !llvm.loop !50

._crit_edge:                                      ; preds = %12, %.preheader
  %.lcssa16 = phi i32 [ %9, %.preheader ], [ %18, %12 ]
  store i32 %.lcssa16, ptr @recffid, align 4, !tbaa !18
  %20 = load i8, ptr %1, align 1, !tbaa !21
  %21 = icmp eq i8 %20, 46
  %spec.store.select = select i1 %21, ptr @funcname, ptr %1
  %22 = tail call ptr @strchr(ptr noundef nonnull dereferenceable(1) %spec.store.select, i32 noundef 32) #18
  %.not = icmp eq ptr %22, null
  br i1 %.not, label %25, label %23

23:                                               ; preds = %._crit_edge
  %24 = getelementptr inbounds nuw i8, ptr %22, i64 1
  store i8 0, ptr %22, align 1, !tbaa !21
  br label %25

25:                                               ; preds = %23, %._crit_edge
  %.0 = phi ptr [ %24, %23 ], [ null, %._crit_edge ]
  %26 = load i8, ptr @obuf, align 16, !tbaa !21
  %.not22.i = icmp eq i8 %26, 0
  br i1 %.not22.i, label %._crit_edge.i, label %.lr.ph.i

.lr.ph.i:                                         ; preds = %25, %29
  %.012.ptr25.i = phi ptr [ %.012.ptr.i, %29 ], [ @obuf, %25 ]
  %.024.i = phi i32 [ %32, %29 ], [ 2, %25 ]
  %.012.idx23.i = phi i64 [ %.012.add15.i, %29 ], [ 0, %25 ]
  %27 = tail call i32 @strcmp(ptr noundef nonnull dereferenceable(1) %.012.ptr25.i, ptr noundef nonnull readonly dereferenceable(1) %spec.store.select) #18
  %28 = icmp eq i32 %27, 0
  br i1 %28, label %find_rec.exit, label %29

29:                                               ; preds = %.lr.ph.i
  %30 = tail call i64 @strlen(ptr noundef nonnull dereferenceable(1) %.012.ptr25.i) #18
  %31 = add i64 %.012.idx23.i, 1
  %.012.add15.i = add i64 %31, %30
  %32 = add i32 %.024.i, 1
  %.012.ptr.i = getelementptr inbounds nuw i8, ptr @obuf, i64 %.012.add15.i
  %33 = load i8, ptr %.012.ptr.i, align 1, !tbaa !21
  %.not.i = icmp eq i8 %33, 0
  br i1 %.not.i, label %._crit_edge.i, label %.lr.ph.i, !llvm.loop !51

._crit_edge.i:                                    ; preds = %29, %25
  %.012.idx.lcssa.i = phi i64 [ 0, %25 ], [ %.012.add15.i, %29 ]
  %.0.lcssa.i = phi i32 [ 2, %25 ], [ %32, %29 ]
  %.012.ptr.lcssa.i = phi ptr [ @obuf, %25 ], [ %.012.ptr.i, %29 ]
  %34 = tail call i64 @strlen(ptr noundef nonnull readonly dereferenceable(1) %spec.store.select) #18
  %.012.add.i = add nuw nsw i64 %34, %.012.idx.lcssa.i
  %.not14.i = icmp slt i64 %.012.add.i, 8191
  br i1 %.not14.i, label %38, label %35

35:                                               ; preds = %._crit_edge.i
  %36 = load ptr, ptr @stderr, align 8, !tbaa !22
  %37 = tail call i64 @fwrite(ptr nonnull @.str.40, i64 30, i64 1, ptr %36) #19
  tail call void @exit(i32 noundef 1) #17
  unreachable

38:                                               ; preds = %._crit_edge.i
  %39 = tail call ptr @strcpy(ptr noundef nonnull dereferenceable(1) %.012.ptr.lcssa.i, ptr noundef nonnull readonly dereferenceable(1) %spec.store.select) #14
  br label %find_rec.exit

find_rec.exit:                                    ; preds = %.lr.ph.i, %38
  %.020.i = phi i32 [ %.0.lcssa.i, %38 ], [ %.024.i, %.lr.ph.i ]
  %.not14 = icmp eq ptr %.0, null
  %40 = getelementptr inbounds nuw i8, ptr %0, i64 16
  %41 = load ptr, ptr %40, align 8, !tbaa !17
  br i1 %.not14, label %44, label %42

42:                                               ; preds = %find_rec.exit
  %43 = tail call i32 (ptr, ptr, ...) @fprintf(ptr noundef %41, ptr noundef nonnull @.str.64, i32 noundef %.020.i, ptr noundef nonnull %.0) #14
  br label %46

44:                                               ; preds = %find_rec.exit
  %45 = tail call i32 (ptr, ptr, ...) @fprintf(ptr noundef %41, ptr noundef nonnull @.str.65, i32 noundef %.020.i) #14
  br label %46

46:                                               ; preds = %42, %44, %3
  ret void
}